; Function Attrs: mustprogress uwtable
define void @_ZN7rocksdb23CheckConsistencyCommandC2ERKSt6vectorINSt7__cxx1112basic_stringIcSt11char_traitsIcESaIcEEESaIS7_EERKSt3mapIS7_S7_St4lessIS7_ESaISt4pairIKS7_S7_EEESB_(ptr noundef nonnull align 8 dereferenceable(2208) %0, ptr nonnull readnone align 8 captures(none) %1, ptr noundef nonnull align 8 dereferenceable(48) %2, ptr noundef nonnull readonly align 8 captures(none) dereferenceable(24) %3) unnamed_addr #5 align 2 personality ptr @__gxx_personality_v0 {
  %5 = alloca %"class.std::vector.3", align 8
  %6 = alloca %"class.std::vector.3", align 8
  call void @llvm.lifetime.start.p0(i64 24, ptr nonnull %5) #35
  call void @llvm.memset.p0.i64(ptr noundef nonnull align 8 dereferenceable(24) %6, i8 0, i64 24, i1 false)
  invoke void @_ZN7rocksdb10LDBCommand19BuildCmdLineOptionsESt6vectorINSt7__cxx1112basic_stringIcSt11char_traitsIcESaIcEEESaIS7_EE(ptr dead_on_unwind nonnull writable sret(%"class.std::vector.3") align 8 %5, ptr noundef nonnull %6)
          to label %7 unwind label %28

7:                                                ; preds = %4
  invoke void @_ZN7rocksdb10LDBCommandC2ERKSt3mapINSt7__cxx1112basic_stringIcSt11char_traitsIcESaIcEEES7_St4lessIS7_ESaISt4pairIKS7_S7_EEERKSt6vectorIS7_SaIS7_EEbSL_(ptr noundef nonnull align 8 dereferenceable(2208) %0, ptr noundef nonnull align 8 dereferenceable(48) %2, ptr noundef nonnull align 8 dereferenceable(24) %3, i1 noundef zeroext true, ptr noundef nonnull align 8 dereferenceable(24) %5)
          to label %8 unwind label %30

8:                                                ; preds = %7
  %9 = load ptr, ptr %5, align 8, !tbaa !27
  %10 = getelementptr inbounds nuw i8, ptr %5, i64 8
  %11 = load ptr, ptr %10, align 8, !tbaa !30
  %.not4.i.i.i.i = icmp eq ptr %9, %11
  br i1 %.not4.i.i.i.i, label %_ZSt8_DestroyIPNSt7__cxx1112basic_stringIcSt11char_traitsIcESaIcEEES5_EvT_S7_RSaIT0_E.exit.i, label %.lr.ph.i.i.i.i

.lr.ph.i.i.i.i:                                   ; preds = %8, %_ZSt8_DestroyINSt7__cxx1112basic_stringIcSt11char_traitsIcESaIcEEEEvPT_.exit.i.i.i.i
  %.05.i.i.i.i = phi ptr [ %20, %_ZSt8_DestroyINSt7__cxx1112basic_stringIcSt11char_traitsIcESaIcEEEEvPT_.exit.i.i.i.i ], [ %9, %8 ]
  %12 = load ptr, ptr %.05.i.i.i.i, align 8, !tbaa !16
  %13 = getelementptr inbounds nuw i8, ptr %.05.i.i.i.i, i64 16
  %14 = icmp eq ptr %12, %13
  br i1 %14, label %_ZNKSt7__cxx1112basic_stringIcSt11char_traitsIcESaIcEE11_M_is_localEv.exit.thread.i.i.i.i.i.i.i, label %_ZNKSt7__cxx1112basic_stringIcSt11char_traitsIcESaIcEE11_M_is_localEv.exit.i.i.i.i.i.i.i

_ZNKSt7__cxx1112basic_stringIcSt11char_traitsIcESaIcEE11_M_is_localEv.exit.thread.i.i.i.i.i.i.i: ; preds = %.lr.ph.i.i.i.i
  %15 = getelementptr inbounds nuw i8, ptr %.05.i.i.i.i, i64 8
  %16 = load i64, ptr %15, align 8, !tbaa !19
  %17 = icmp ult i64 %16, 16
  call void @llvm.assume(i1 %17)
  br label %_ZSt8_DestroyINSt7__cxx1112basic_stringIcSt11char_traitsIcESaIcEEEEvPT_.exit.i.i.i.i

_ZNKSt7__cxx1112basic_stringIcSt11char_traitsIcESaIcEE11_M_is_localEv.exit.i.i.i.i.i.i.i: ; preds = %.lr.ph.i.i.i.i
  %18 = load i64, ptr %13, align 8, !tbaa !18
  %19 = add i64 %18, 1
  call void @_ZdlPvm(ptr noundef %12, i64 noundef %19) #33
  br label %_ZSt8_DestroyINSt7__cxx1112basic_stringIcSt11char_traitsIcESaIcEEEEvPT_.exit.i.i.i.i

_ZSt8_DestroyINSt7__cxx1112basic_stringIcSt11char_traitsIcESaIcEEEEvPT_.exit.i.i.i.i: ; preds = %_ZNKSt7__cxx1112basic_stringIcSt11char_traitsIcESaIcEE11_M_is_localEv.exit.i.i.i.i.i.i.i, %_ZNKSt7__cxx1112basic_stringIcSt11char_traitsIcESaIcEE11_M_is_localEv.exit.thread.i.i.i.i.i.i.i
  %20 = getelementptr inbounds nuw i8, ptr %.05.i.i.i.i, i64 32
  %.not.i.i.i.i = icmp eq ptr %20, %11
  br i1 %.not.i.i.i.i, label %_ZSt8_DestroyIPNSt7__cxx1112basic_stringIcSt11char_traitsIcESaIcEEES5_EvT_S7_RSaIT0_E.exitthread-pre-split.i, label %.lr.ph.i.i.i.i, !llvm.loop !31

_ZSt8_DestroyIPNSt7__cxx1112basic_stringIcSt11char_traitsIcESaIcEEES5_EvT_S7_RSaIT0_E.exitthread-pre-split.i: ; preds = %_ZSt8_DestroyINSt7__cxx1112basic_stringIcSt11char_traitsIcESaIcEEEEvPT_.exit.i.i.i.i
  %.pr.i = load ptr, ptr %5, align 8, !tbaa !27
  br label %_ZSt8_DestroyIPNSt7__cxx1112basic_stringIcSt11char_traitsIcESaIcEEES5_EvT_S7_RSaIT0_E.exit.i

_ZSt8_DestroyIPNSt7__cxx1112basic_stringIcSt11char_traitsIcESaIcEEES5_EvT_S7_RSaIT0_E.exit.i: ; preds = %_ZSt8_DestroyIPNSt7__cxx1112basic_stringIcSt11char_traitsIcESaIcEEES5_EvT_S7_RSaIT0_E.exitthread-pre-split.i, %8
  %21 = phi ptr [ %.pr.i, %_ZSt8_DestroyIPNSt7__cxx1112basic_stringIcSt11char_traitsIcESaIcEEES5_EvT_S7_RSaIT0_E.exitthread-pre-split.i ], [ %9, %8 ]
  %.not.i.i.i = icmp eq ptr %21, null
  br i1 %.not.i.i.i, label %_ZNSt6vectorINSt7__cxx1112basic_stringIcSt11char_traitsIcESaIcEEESaIS5_EED2Ev.exit17, label %22

22:                                               ; preds = %_ZSt8_DestroyIPNSt7__cxx1112basic_stringIcSt11char_traitsIcESaIcEEES5_EvT_S7_RSaIT0_E.exit.i
  %23 = getelementptr inbounds nuw i8, ptr %5, i64 16
  %24 = load ptr, ptr %23, align 8, !tbaa !32
  %25 = ptrtoint ptr %24 to i64
  %26 = ptrtoint ptr %21 to i64
  %27 = sub i64 %25, %26
  call void @_ZdlPvm(ptr noundef nonnull %21, i64 noundef %27) #33
  br label %_ZNSt6vectorINSt7__cxx1112basic_stringIcSt11char_traitsIcESaIcEEESaIS5_EED2Ev.exit17

_ZNSt6vectorINSt7__cxx1112basic_stringIcSt11char_traitsIcESaIcEEESaIS5_EED2Ev.exit17: ; preds = %_ZSt8_DestroyIPNSt7__cxx1112basic_stringIcSt11char_traitsIcESaIcEEES5_EvT_S7_RSaIT0_E.exit.i, %22
  call void @llvm.lifetime.end.p0(i64 24, ptr nonnull %5) #35
  store ptr getelementptr inbounds nuw inrange(-16, 72) (i8, ptr @_ZTVN7rocksdb23CheckConsistencyCommandE, i64 16), ptr %0, align 8, !tbaa !45
  ret void

28:                                               ; preds = %4
  %29 = landingpad { ptr, i32 }
          cleanup
  br label %32

30:                                               ; preds = %7
  %31 = landingpad { ptr, i32 }
          cleanup
  call void @_ZNSt6vectorINSt7__cxx1112basic_stringIcSt11char_traitsIcESaIcEEESaIS5_EED2Ev(ptr noundef nonnull align 8 dereferenceable(24) %5) #35
  br label %32

32:                                               ; preds = %30, %28
  %.pn = phi { ptr, i32 } [ %31, %30 ], [ %29, %28 ]
  call void @_ZNSt6vectorINSt7__cxx1112basic_stringIcSt11char_traitsIcESaIcEEESaIS5_EED2Ev(ptr noundef nonnull align 8 dereferenceable(24) %6) #35
  call void @llvm.lifetime.end.p0(i64 24, ptr nonnull %5) #35
  resume { ptr, i32 } %.pn
}